<?xml version="1.0"?>
<?xml-stylesheet type="text/xsl" href="pdml2html.xsl"?>
<!-- You can find pdml2html.xsl in /usr/share/wireshark or at http://anonsvn.wireshark.org/trunk/wireshark/pdml2html.xsl. -->
<pdml version="0" creator="wireshark/1.8.2" time="Mon Dec  2 17:28:47 2013" capture_file="pcap_samples/web_services_sap.pcapng">
<packet>
  <proto name="geninfo" pos="0" showname="General information" size="805">
    <field name="num" pos="0" show="14" showname="Number" value="e" size="805"/>
    <field name="len" pos="0" show="805" showname="Frame Length" value="325" size="805"/>
    <field name="caplen" pos="0" show="805" showname="Captured Length" value="325" size="805"/>
    <field name="timestamp" pos="0" show="Dec  2, 2013 17:19:23.395230000 EST" showname="Captured Time" value="1386022763.395230000" size="805"/>
  </proto>
  <proto name="frame" showname="Frame 14: 805 bytes on wire (6440 bits), 805 bytes captured (6440 bits) on interface 0" size="805" pos="0">
    <field name="frame.interface_id" showname="Interface id: 0" size="0" pos="0" show="0"/>
    <field name="frame.dlt" showname="WTAP_ENCAP: 1" size="0" pos="0" show="1"/>
    <field name="frame.time" showname="Arrival Time: Dec  2, 2013 17:19:23.395230000 EST" size="0" pos="0" show="Dec  2, 2013 17:19:23.395230000"/>
    <field name="frame.offset_shift" showname="Time shift for this packet: 0.000000000 seconds" size="0" pos="0" show="0.000000000"/>
    <field name="frame.time_epoch" showname="Epoch Time: 1386022763.395230000 seconds" size="0" pos="0" show="1386022763.395230000"/>
    <field name="frame.time_delta" showname="Time delta from previous captured frame: 0.000501000 seconds" size="0" pos="0" show="0.000501000"/>
    <field name="frame.time_delta_displayed" showname="Time delta from previous displayed frame: 0.000000000 seconds" size="0" pos="0" show="0.000000000"/>
    <field name="frame.time_relative" showname="Time since reference or first frame: 0.006773000 seconds" size="0" pos="0" show="0.006773000"/>
    <field name="frame.number" showname="Frame Number: 14" size="0" pos="0" show="14"/>
    <field name="frame.len" showname="Frame Length: 805 bytes (6440 bits)" size="0" pos="0" show="805"/>
    <field name="frame.cap_len" showname="Capture Length: 805 bytes (6440 bits)" size="0" pos="0" show="805"/>
    <field name="frame.marked" showname="Frame is marked: False" size="0" pos="0" show="0"/>
    <field name="frame.ignored" showname="Frame is ignored: False" size="0" pos="0" show="0"/>
    <field name="frame.protocols" showname="Protocols in frame: eth:ip:tcp:data" size="0" pos="0" show="eth:ip:tcp:data"/>
  </proto>
  <proto name="eth" showname="Ethernet II, Src: Vmware_c0:00:01 (00:50:56:c0:00:01), Dst: Vmware_23:4e:c1 (00:0c:29:23:4e:c1)" size="14" pos="0">
    <field name="eth.dst" showname="Destination: Vmware_23:4e:c1 (00:0c:29:23:4e:c1)" size="6" pos="0" show="00:0c:29:23:4e:c1" value="000c29234ec1">
      <field name="eth.addr" showname="Address: Vmware_23:4e:c1 (00:0c:29:23:4e:c1)" size="6" pos="0" show="00:0c:29:23:4e:c1" value="000c29234ec1"/>
      <field name="eth.lg" showname=".... ..0. .... .... .... .... = LG bit: Globally unique address (factory default)" size="3" pos="0" show="0" value="0" unmaskedvalue="000c29"/>
      <field name="eth.ig" showname=".... ...0 .... .... .... .... = IG bit: Individual address (unicast)" size="3" pos="0" show="0" value="0" unmaskedvalue="000c29"/>
    </field>
    <field name="eth.src" showname="Source: Vmware_c0:00:01 (00:50:56:c0:00:01)" size="6" pos="6" show="00:50:56:c0:00:01" value="005056c00001">
      <field name="eth.addr" showname="Address: Vmware_c0:00:01 (00:50:56:c0:00:01)" size="6" pos="6" show="00:50:56:c0:00:01" value="005056c00001"/>
      <field name="eth.lg" showname=".... ..0. .... .... .... .... = LG bit: Globally unique address (factory default)" size="3" pos="6" show="0" value="0" unmaskedvalue="005056"/>
      <field name="eth.ig" showname=".... ...0 .... .... .... .... = IG bit: Individual address (unicast)" size="3" pos="6" show="0" value="0" unmaskedvalue="005056"/>
    </field>
    <field name="eth.type" showname="Type: IP (0x0800)" size="2" pos="12" show="0x0800" value="0800"/>
  </proto>
  <proto name="ip" showname="Internet Protocol Version 4, Src: 172.16.106.1 (172.16.106.1), Dst: 172.16.106.135 (172.16.106.135)" size="20" pos="14">
    <field name="ip.version" showname="Version: 4" size="1" pos="14" show="4" value="45"/>
    <field name="ip.hdr_len" showname="Header length: 20 bytes" size="1" pos="14" show="20" value="45"/>
    <field name="ip.dsfield" showname="Differentiated Services Field: 0x00 (DSCP 0x00: Default; ECN: 0x00: Not-ECT (Not ECN-Capable Transport))" size="1" pos="15" show="0" value="00">
      <field name="ip.dsfield.dscp" showname="0000 00.. = Differentiated Services Codepoint: Default (0x00)" size="1" pos="15" show="0x00" value="0" unmaskedvalue="00"/>
      <field name="ip.dsfield.ecn" showname=".... ..00 = Explicit Congestion Notification: Not-ECT (Not ECN-Capable Transport) (0x00)" size="1" pos="15" show="0x00" value="0" unmaskedvalue="00"/>
    </field>
    <field name="ip.len" showname="Total Length: 791" size="2" pos="16" show="791" value="0317"/>
    <field name="ip.id" showname="Identification: 0xe3a0 (58272)" size="2" pos="18" show="0xe3a0" value="e3a0"/>
    <field name="ip.flags" showname="Flags: 0x02 (Don&apos;t Fragment)" size="1" pos="20" show="0x02" value="40">
      <field name="ip.flags.rb" showname="0... .... = Reserved bit: Not set" size="1" pos="20" show="0" value="40"/>
      <field name="ip.flags.df" showname=".1.. .... = Don&apos;t fragment: Set" size="1" pos="20" show="1" value="40"/>
      <field name="ip.flags.mf" showname="..0. .... = More fragments: Not set" size="1" pos="20" show="0" value="40"/>
    </field>
    <field name="ip.frag_offset" showname="Fragment offset: 0" size="2" pos="20" show="0" value="4000"/>
    <field name="ip.ttl" showname="Time to live: 64" size="1" pos="22" show="64" value="40"/>
    <field name="ip.proto" showname="Protocol: TCP (6)" size="1" pos="23" show="6" value="06"/>
    <field name="ip.checksum" showname="Header checksum: 0x2797 [correct]" size="2" pos="24" show="0x2797" value="2797">
      <field name="ip.checksum_good" showname="Good: True" size="2" pos="24" show="1" value="2797"/>
      <field name="ip.checksum_bad" showname="Bad: False" size="2" pos="24" show="0" value="2797"/>
    </field>
    <field name="ip.src" showname="Source: 172.16.106.1 (172.16.106.1)" size="4" pos="26" show="172.16.106.1" value="ac106a01"/>
    <field name="ip.addr" showname="Source or Destination Address: 172.16.106.1 (172.16.106.1)" hide="yes" size="4" pos="26" show="172.16.106.1" value="ac106a01"/>
    <field name="ip.src_host" showname="Source Host: 172.16.106.1" hide="yes" size="4" pos="26" show="172.16.106.1" value="ac106a01"/>
    <field name="ip.host" showname="Source or Destination Host: 172.16.106.1" hide="yes" size="4" pos="26" show="172.16.106.1" value="ac106a01"/>
    <field name="ip.dst" showname="Destination: 172.16.106.135 (172.16.106.135)" size="4" pos="30" show="172.16.106.135" value="ac106a87"/>
    <field name="ip.addr" showname="Source or Destination Address: 172.16.106.135 (172.16.106.135)" hide="yes" size="4" pos="30" show="172.16.106.135" value="ac106a87"/>
    <field name="ip.dst_host" showname="Destination Host: 172.16.106.135" hide="yes" size="4" pos="30" show="172.16.106.135" value="ac106a87"/>
    <field name="ip.host" showname="Source or Destination Host: 172.16.106.135" hide="yes" size="4" pos="30" show="172.16.106.135" value="ac106a87"/>
    <field name="" show="Source GeoIP: Unknown" size="4" pos="26" value="ac106a01"/>
    <field name="" show="Destination GeoIP: Unknown" size="4" pos="30" value="ac106a87"/>
  </proto>
  <proto name="tcp" showname="Transmission Control Protocol, Src Port: 32888 (32888), Dst Port: 50013 (50013), Seq: 1, Ack: 1, Len: 739" size="32" pos="34">
    <field name="tcp.srcport" showname="Source port: 32888 (32888)" size="2" pos="34" show="32888" value="8078"/>
    <field name="tcp.dstport" showname="Destination port: 50013 (50013)" size="2" pos="36" show="50013" value="c35d"/>
    <field name="tcp.port" showname="Source or Destination Port: 32888" hide="yes" size="2" pos="34" show="32888" value="8078"/>
    <field name="tcp.port" showname="Source or Destination Port: 50013" hide="yes" size="2" pos="36" show="50013" value="c35d"/>
    <field name="tcp.stream" showname="Stream index: 1" size="0" pos="34" show="1"/>
    <field name="tcp.len" showname="TCP Segment Len: 739" hide="yes" size="1" pos="46" show="739" value="80"/>
    <field name="tcp.seq" showname="Sequence number: 1    (relative sequence number)" size="4" pos="38" show="1" value="61571584"/>
    <field name="tcp.nxtseq" showname="Next sequence number: 740    (relative sequence number)" size="0" pos="34" show="740"/>
    <field name="tcp.ack" showname="Acknowledgment number: 1    (relative ack number)" size="4" pos="42" show="1" value="0c95aa0f"/>
    <field name="tcp.hdr_len" showname="Header length: 32 bytes" size="1" pos="46" show="32" value="80"/>
    <field name="tcp.flags" showname="Flags: 0x018 (PSH, ACK)" size="2" pos="46" show="0x0018" value="18" unmaskedvalue="8018">
      <field name="tcp.flags.res" showname="000. .... .... = Reserved: Not set" size="1" pos="46" show="0" value="0" unmaskedvalue="80"/>
      <field name="tcp.flags.ns" showname="...0 .... .... = Nonce: Not set" size="1" pos="46" show="0" value="0" unmaskedvalue="80"/>
      <field name="tcp.flags.cwr" showname=".... 0... .... = Congestion Window Reduced (CWR): Not set" size="1" pos="47" show="0" value="0" unmaskedvalue="18"/>
      <field name="tcp.flags.ecn" showname=".... .0.. .... = ECN-Echo: Not set" size="1" pos="47" show="0" value="0" unmaskedvalue="18"/>
      <field name="tcp.flags.urg" showname=".... ..0. .... = Urgent: Not set" size="1" pos="47" show="0" value="0" unmaskedvalue="18"/>
      <field name="tcp.flags.ack" showname=".... ...1 .... = Acknowledgment: Set" size="1" pos="47" show="1" value="1" unmaskedvalue="18"/>
      <field name="tcp.flags.push" showname=".... .... 1... = Push: Set" size="1" pos="47" show="1" value="1" unmaskedvalue="18"/>
      <field name="tcp.flags.reset" showname=".... .... .0.. = Reset: Not set" size="1" pos="47" show="0" value="0" unmaskedvalue="18"/>
      <field name="tcp.flags.syn" showname=".... .... ..0. = Syn: Not set" size="1" pos="47" show="0" value="0" unmaskedvalue="18"/>
      <field name="tcp.flags.fin" showname=".... .... ...0 = Fin: Not set" size="1" pos="47" show="0" value="0" unmaskedvalue="18"/>
    </field>
    <field name="tcp.window_size_value" showname="Window size value: 115" size="2" pos="48" show="115" value="0073"/>
    <field name="tcp.window_size" showname="Calculated window size: 14720" size="2" pos="48" show="14720" value="0073"/>
    <field name="tcp.window_size_scalefactor" showname="Window size scaling factor: 128" size="2" pos="48" show="128" value="0073"/>
    <field name="tcp.checksum" showname="Checksum: 0x8721 [validation disabled]" size="2" pos="50" show="0x8721" value="8721">
      <field name="tcp.checksum_good" showname="Good Checksum: False" size="2" pos="50" show="0" value="8721"/>
      <field name="tcp.checksum_bad" showname="Bad Checksum: False" size="2" pos="50" show="0" value="8721"/>
    </field>
    <field name="tcp.options" showname="Options: (12 bytes), No-Operation (NOP), No-Operation (NOP), Timestamps" size="12" pos="54" show="01:01:08:0a:06:a0:f6:1d:00:b1:78:f5" value="0101080a06a0f61d00b178f5">
      <field name="" show="No-Operation (NOP)" size="1" pos="54" value="01">
        <field name="ip.opt.type" showname="Type: 1" size="1" pos="54" show="1" value="01">
          <field name="ip.opt.type.copy" showname="0... .... = Copy on fragmentation: No" size="1" pos="54" show="0" value="0" unmaskedvalue="01"/>
          <field name="ip.opt.type.class" showname=".00. .... = Class: Control (0)" size="1" pos="54" show="0" value="0" unmaskedvalue="01"/>
          <field name="ip.opt.type.number" showname="...0 0001 = Number: No-Operation (NOP) (1)" size="1" pos="54" show="1" value="1" unmaskedvalue="01"/>
        </field>
      </field>
      <field name="" show="No-Operation (NOP)" size="1" pos="55" value="01">
        <field name="ip.opt.type" showname="Type: 1" size="1" pos="55" show="1" value="01">
          <field name="ip.opt.type.copy" showname="0... .... = Copy on fragmentation: No" size="1" pos="55" show="0" value="0" unmaskedvalue="01"/>
          <field name="ip.opt.type.class" showname=".00. .... = Class: Control (0)" size="1" pos="55" show="0" value="0" unmaskedvalue="01"/>
          <field name="ip.opt.type.number" showname="...0 0001 = Number: No-Operation (NOP) (1)" size="1" pos="55" show="1" value="1" unmaskedvalue="01"/>
        </field>
      </field>
      <field name="" show="Timestamps: TSval 111212061, TSecr 11630837" size="10" pos="56" value="080a06a0f61d00b178f5">
        <field name="tcp.option_kind" showname="Kind: Timestamp (8)" size="1" pos="56" show="8" value="08"/>
        <field name="tcp.option_len" showname="Length: 10" size="1" pos="57" show="10" value="0a"/>
        <field name="tcp.options.timestamp.tsval" showname="Timestamp value: 111212061" size="4" pos="58" show="111212061" value="06a0f61d"/>
        <field name="tcp.options.timestamp.tsecr" showname="Timestamp echo reply: 11630837" size="4" pos="62" show="11630837" value="00b178f5"/>
      </field>
    </field>
    <field name="tcp.analysis" showname="SEQ/ACK analysis" size="0" pos="34" show="" value="">
      <field name="tcp.analysis.bytes_in_flight" showname="Bytes in flight: 739" size="0" pos="34" show="739"/>
    </field>
  </proto>
  <proto name="fake-field-wrapper">
    <field name="data" value="504f5354202f20485454502f312e310d0a486f73743a203137322e31362e3130362e3133353a35303031330d0a557365722d4167656e743a204d6f7a696c6c612f342e302028636f6d70617469626c653b204d53494520362e303b2057696e646f7773204e5420352e31290d0a436f6e74656e742d4c656e6774683a203533310d0a534f4150416374696f6e3a2022220d0a436f6e74656e742d547970653a20746578742f786d6c3b20636861727365743d5554462d380d0a436f6e74656e742d4c656e6774683a203533310d0a0d0a3c3f786d6c2076657273696f6e3d22312e302220656e636f64696e673d227574662d38223f3e0d0a3c534f41502d454e563a456e76656c6f706520786d6c6e733a534f41502d454e563d22687474703a2f2f736368656d61732e786d6c736f61702e6f72672f736f61702f656e76656c6f70652f222020786d6c6e733a7873693d22687474703a2f2f7777772e77332e6f72672f323030312f584d4c536368656d612d696e7374616e63652220786d6c6e733a78733d22687474703a2f2f7777772e77332e6f72672f323030312f584d4c536368656d61223e0d0a3c534f41502d454e563a4865616465723e0d0a3c736170736573733a53657373696f6e20786c6d6e733a736170736573733d22687474703a2f2f7777772e7361702e636f6d2f77656261732f3633302f736f61702f66656174757265732f73657373696f6e2f223e0d0a3c656e61626c6553657373696f6e3e747275653c2f656e61626c6553657373696f6e3e0d0a3c2f736170736573733a53657373696f6e3e0d0a3c2f534f41502d454e563a4865616465723e0d0a3c534f41502d454e563a426f64793e0d0a3c6e73313a41424150526561645379736c6f6720786d6c6e733a6e73313d2275726e3a534150436f6e74726f6c223e3c2f6e73313a41424150526561645379736c6f673e0d0a3c2f534f41502d454e563a426f64793e0d0a3c2f534f41502d454e563a456e76656c6f70653e0d0a0d0a">
      <field name="data.data" showname="Data: 504f5354202f20485454502f312e310d0a486f73743a2031..." size="739" pos="66" show="50:4f:53:54:20:2f:20:48:54:54:50:2f:31:2e:31:0d:0a:48:6f:73:74:3a:20:31:37:32:2e:31:36:2e:31:30:36:2e:31:33:35:3a:35:30:30:31:33:0d:0a:55:73:65:72:2d:41:67:65:6e:74:3a:20:4d:6f:7a:69:6c:6c:61:2f:34:2e:30:20:28:63:6f:6d:70:61:74:69:62:6c:65:3b:20:4d:53:49:45:20:36:2e:30:3b:20:57:69:6e:64:6f:77:73:20:4e:54:20:35:2e:31:29:0d:0a:43:6f:6e:74:65:6e:74:2d:4c:65:6e:67:74:68:3a:20:35:33:31:0d:0a:53:4f:41:50:41:63:74:69:6f:6e:3a:20:22:22:0d:0a:43:6f:6e:74:65:6e:74:2d:54:79:70:65:3a:20:74:65:78:74:2f:78:6d:6c:3b:20:63:68:61:72:73:65:74:3d:55:54:46:2d:38:0d:0a:43:6f:6e:74:65:6e:74:2d:4c:65:6e:67:74:68:3a:20:35:33:31:0d:0a:0d:0a:3c:3f:78:6d:6c:20:76:65:72:73:69:6f:6e:3d:22:31:2e:30:22:20:65:6e:63:6f:64:69:6e:67:3d:22:75:74:66:2d:38:22:3f:3e:0d:0a:3c:53:4f:41:50:2d:45:4e:56:3a:45:6e:76:65:6c:6f:70:65:20:78:6d:6c:6e:73:3a:53:4f:41:50:2d:45:4e:56:3d:22:68:74:74:70:3a:2f:2f:73:63:68:65:6d:61:73:2e:78:6d:6c:73:6f:61:70:2e:6f:72:67:2f:73:6f:61:70:2f:65:6e:76:65:6c:6f:70:65:2f:22:20:20:78:6d:6c:6e:73:3a:78:73:69:3d:22:68:74:74:70:3a:2f:2f:77:77:77:2e:77:33:2e:6f:72:67:2f:32:30:30:31:2f:58:4d:4c:53:63:68:65:6d:61:2d:69:6e:73:74:61:6e:63:65:22:20:78:6d:6c:6e:73:3a:78:73:3d:22:68:74:74:70:3a:2f:2f:77:77:77:2e:77:33:2e:6f:72:67:2f:32:30:30:31:2f:58:4d:4c:53:63:68:65:6d:61:22:3e:0d:0a:3c:53:4f:41:50:2d:45:4e:56:3a:48:65:61:64:65:72:3e:0d:0a:3c:73:61:70:73:65:73:73:3a:53:65:73:73:69:6f:6e:20:78:6c:6d:6e:73:3a:73:61:70:73:65:73:73:3d:22:68:74:74:70:3a:2f:2f:77:77:77:2e:73:61:70:2e:63:6f:6d:2f:77:65:62:61:73:2f:36:33:30:2f:73:6f:61:70:2f:66:65:61:74:75:72:65:73:2f:73:65:73:73:69:6f:6e:2f:22:3e:0d:0a:3c:65:6e:61:62:6c:65:53:65:73:73:69:6f:6e:3e:74:72:75:65:3c:2f:65:6e:61:62:6c:65:53:65:73:73:69:6f:6e:3e:0d:0a:3c:2f:73:61:70:73:65:73:73:3a:53:65:73:73:69:6f:6e:3e:0d:0a:3c:2f:53:4f:41:50:2d:45:4e:56:3a:48:65:61:64:65:72:3e:0d:0a:3c:53:4f:41:50:2d:45:4e:56:3a:42:6f:64:79:3e:0d:0a:3c:6e:73:31:3a:41:42:41:50:52:65:61:64:53:79:73:6c:6f:67:20:78:6d:6c:6e:73:3a:6e:73:31:3d:22:75:72:6e:3a:53:41:50:43:6f:6e:74:72:6f:6c:22:3e:3c:2f:6e:73:31:3a:41:42:41:50:52:65:61:64:53:79:73:6c:6f:67:3e:0d:0a:3c:2f:53:4f:41:50:2d:45:4e:56:3a:42:6f:64:79:3e:0d:0a:3c:2f:53:4f:41:50:2d:45:4e:56:3a:45:6e:76:65:6c:6f:70:65:3e:0d:0a:0d:0a" value="504f5354202f20485454502f312e310d0a486f73743a203137322e31362e3130362e3133353a35303031330d0a557365722d4167656e743a204d6f7a696c6c612f342e302028636f6d70617469626c653b204d53494520362e303b2057696e646f7773204e5420352e31290d0a436f6e74656e742d4c656e6774683a203533310d0a534f4150416374696f6e3a2022220d0a436f6e74656e742d547970653a20746578742f786d6c3b20636861727365743d5554462d380d0a436f6e74656e742d4c656e6774683a203533310d0a0d0a3c3f786d6c2076657273696f6e3d22312e302220656e636f64696e673d227574662d38223f3e0d0a3c534f41502d454e563a456e76656c6f706520786d6c6e733a534f41502d454e563d22687474703a2f2f736368656d61732e786d6c736f61702e6f72672f736f61702f656e76656c6f70652f222020786d6c6e733a7873693d22687474703a2f2f7777772e77332e6f72672f323030312f584d4c536368656d612d696e7374616e63652220786d6c6e733a78733d22687474703a2f2f7777772e77332e6f72672f323030312f584d4c536368656d61223e0d0a3c534f41502d454e563a4865616465723e0d0a3c736170736573733a53657373696f6e20786c6d6e733a736170736573733d22687474703a2f2f7777772e7361702e636f6d2f77656261732f3633302f736f61702f66656174757265732f73657373696f6e2f223e0d0a3c656e61626c6553657373696f6e3e747275653c2f656e61626c6553657373696f6e3e0d0a3c2f736170736573733a53657373696f6e3e0d0a3c2f534f41502d454e563a4865616465723e0d0a3c534f41502d454e563a426f64793e0d0a3c6e73313a41424150526561645379736c6f6720786d6c6e733a6e73313d2275726e3a534150436f6e74726f6c223e3c2f6e73313a41424150526561645379736c6f673e0d0a3c2f534f41502d454e563a426f64793e0d0a3c2f534f41502d454e563a456e76656c6f70653e0d0a0d0a"/>
      <field name="data.len" showname="Length: 739" size="0" pos="66" show="739"/>
  </field>
</proto>
</packet>


</pdml>
