<?xml version="1.0"?>
<?xml-stylesheet type="text/xsl" href="pdml2html.xsl"?>
<!-- You can find pdml2html.xsl in /home/willis/tools/wireshark/wireshark-1.10.3 or at http://anonsvn.wireshark.org/trunk/wireshark/pdml2html.xsl. -->
<pdml version="0" creator="wireshark/1.10.3" time="Mon Nov 18 11:36:30 2013" capture_file="samples/giop_sdk.pcap">
<packet>
  <proto name="geninfo" pos="0" showname="General information" size="650">
    <field name="num" pos="0" show="24" showname="Number" value="18" size="650"/>
    <field name="len" pos="0" show="650" showname="Frame Length" value="28a" size="650"/>
    <field name="caplen" pos="0" show="650" showname="Captured Length" value="28a" size="650"/>
    <field name="timestamp" pos="0" show="Aug  7, 2013 11:16:45.620394000 EDT" showname="Captured Time" value="1375888605.620394000" size="650"/>
  </proto>
  <proto name="frame" showname="Frame 24: 650 bytes on wire (5200 bits), 650 bytes captured (5200 bits)" size="650" pos="0">
    <field name="frame.encap_type" showname="Encapsulation type: Ethernet (1)" size="0" pos="0" show="1"/>
    <field name="frame.time" showname="Arrival Time: Aug  7, 2013 11:16:45.620394000 EDT" size="0" pos="0" show="Aug  7, 2013 11:16:45.620394000"/>
    <field name="frame.offset_shift" showname="Time shift for this packet: 0.000000000 seconds" size="0" pos="0" show="0.000000000"/>
    <field name="frame.time_epoch" showname="Epoch Time: 1375888605.620394000 seconds" size="0" pos="0" show="1375888605.620394000"/>
    <field name="frame.time_delta" showname="Time delta from previous captured frame: 0.008476000 seconds" size="0" pos="0" show="0.008476000"/>
    <field name="frame.time_delta_displayed" showname="Time delta from previous displayed frame: 0.000000000 seconds" size="0" pos="0" show="0.000000000"/>
    <field name="frame.time_relative" showname="Time since reference or first frame: 2.315623000 seconds" size="0" pos="0" show="2.315623000"/>
    <field name="frame.number" showname="Frame Number: 24" size="0" pos="0" show="24"/>
    <field name="frame.len" showname="Frame Length: 650 bytes (5200 bits)" size="0" pos="0" show="650"/>
    <field name="frame.cap_len" showname="Capture Length: 650 bytes (5200 bits)" size="0" pos="0" show="650"/>
    <field name="frame.marked" showname="Frame is marked: False" size="0" pos="0" show="0"/>
    <field name="frame.ignored" showname="Frame is ignored: False" size="0" pos="0" show="0"/>
    <field name="frame.protocols" showname="Protocols in frame: eth:ip:tcp:giop" size="0" pos="0" show="eth:ip:tcp:giop"/>
  </proto>
  <proto name="eth" showname="Ethernet II, Src: Vmware_c0:00:01 (00:50:56:c0:00:01), Dst: Vmware_eb:d6:a4 (00:0c:29:eb:d6:a4)" size="14" pos="0">
    <field name="eth.dst" showname="Destination: Vmware_eb:d6:a4 (00:0c:29:eb:d6:a4)" size="6" pos="0" show="00:0c:29:eb:d6:a4" value="000c29ebd6a4">
      <field name="eth.addr" showname="Address: Vmware_eb:d6:a4 (00:0c:29:eb:d6:a4)" size="6" pos="0" show="00:0c:29:eb:d6:a4" value="000c29ebd6a4"/>
      <field name="eth.lg" showname=".... ..0. .... .... .... .... = LG bit: Globally unique address (factory default)" size="3" pos="0" show="0" value="0" unmaskedvalue="000c29"/>
      <field name="eth.ig" showname=".... ...0 .... .... .... .... = IG bit: Individual address (unicast)" size="3" pos="0" show="0" value="0" unmaskedvalue="000c29"/>
    </field>
    <field name="eth.src" showname="Source: Vmware_c0:00:01 (00:50:56:c0:00:01)" size="6" pos="6" show="00:50:56:c0:00:01" value="005056c00001">
      <field name="eth.addr" showname="Address: Vmware_c0:00:01 (00:50:56:c0:00:01)" size="6" pos="6" show="00:50:56:c0:00:01" value="005056c00001"/>
      <field name="eth.lg" showname=".... ..0. .... .... .... .... = LG bit: Globally unique address (factory default)" size="3" pos="6" show="0" value="0" unmaskedvalue="005056"/>
      <field name="eth.ig" showname=".... ...0 .... .... .... .... = IG bit: Individual address (unicast)" size="3" pos="6" show="0" value="0" unmaskedvalue="005056"/>
    </field>
    <field name="eth.type" showname="Type: IP (0x0800)" size="2" pos="12" show="0x0800" value="0800"/>
  </proto>
  <proto name="ip" showname="Internet Protocol Version 4, Src: 172.16.106.1 (172.16.106.1), Dst: 172.16.106.128 (172.16.106.128)" size="20" pos="14">
    <field name="ip.version" showname="Version: 4" size="1" pos="14" show="4" value="45"/>
    <field name="ip.hdr_len" showname="Header length: 20 bytes" size="1" pos="14" show="20" value="45"/>
    <field name="ip.dsfield" showname="Differentiated Services Field: 0x00 (DSCP 0x00: Default; ECN: 0x00: Not-ECT (Not ECN-Capable Transport))" size="1" pos="15" show="0" value="00">
      <field name="ip.dsfield.dscp" showname="0000 00.. = Differentiated Services Codepoint: Default (0x00)" size="1" pos="15" show="0x00" value="0" unmaskedvalue="00"/>
      <field name="ip.dsfield.ecn" showname=".... ..00 = Explicit Congestion Notification: Not-ECT (Not ECN-Capable Transport) (0x00)" size="1" pos="15" show="0x00" value="0" unmaskedvalue="00"/>
    </field>
    <field name="ip.len" showname="Total Length: 636" size="2" pos="16" show="636" value="027c"/>
    <field name="ip.id" showname="Identification: 0xf29e (62110)" size="2" pos="18" show="0xf29e" value="f29e"/>
    <field name="ip.flags" showname="Flags: 0x02 (Don&apos;t Fragment)" size="1" pos="20" show="0x02" value="40">
      <field name="ip.flags.rb" showname="0... .... = Reserved bit: Not set" size="1" pos="20" show="0" value="40"/>
      <field name="ip.flags.df" showname=".1.. .... = Don&apos;t fragment: Set" size="1" pos="20" show="1" value="40"/>
      <field name="ip.flags.mf" showname="..0. .... = More fragments: Not set" size="1" pos="20" show="0" value="40"/>
    </field>
    <field name="ip.frag_offset" showname="Fragment offset: 0" size="2" pos="20" show="0" value="4000"/>
    <field name="ip.ttl" showname="Time to live: 64" size="1" pos="22" show="64" value="40"/>
    <field name="ip.proto" showname="Protocol: TCP (6)" size="1" pos="23" show="6" value="06"/>
    <field name="ip.checksum" showname="Header checksum: 0x193b [correct]" size="2" pos="24" show="0x193b" value="193b">
      <field name="ip.checksum_good" showname="Good: True" size="2" pos="24" show="1" value="193b"/>
      <field name="ip.checksum_bad" showname="Bad: False" size="2" pos="24" show="0" value="193b"/>
    </field>
    <field name="ip.src" showname="Source: 172.16.106.1 (172.16.106.1)" size="4" pos="26" show="172.16.106.1" value="ac106a01"/>
    <field name="ip.addr" showname="Source or Destination Address: 172.16.106.1 (172.16.106.1)" hide="yes" size="4" pos="26" show="172.16.106.1" value="ac106a01"/>
    <field name="ip.src_host" showname="Source Host: 172.16.106.1" hide="yes" size="4" pos="26" show="172.16.106.1" value="ac106a01"/>
    <field name="ip.host" showname="Source or Destination Host: 172.16.106.1" hide="yes" size="4" pos="26" show="172.16.106.1" value="ac106a01"/>
    <field name="ip.dst" showname="Destination: 172.16.106.128 (172.16.106.128)" size="4" pos="30" show="172.16.106.128" value="ac106a80"/>
    <field name="ip.addr" showname="Source or Destination Address: 172.16.106.128 (172.16.106.128)" hide="yes" size="4" pos="30" show="172.16.106.128" value="ac106a80"/>
    <field name="ip.dst_host" showname="Destination Host: 172.16.106.128" hide="yes" size="4" pos="30" show="172.16.106.128" value="ac106a80"/>
    <field name="ip.host" showname="Source or Destination Host: 172.16.106.128" hide="yes" size="4" pos="30" show="172.16.106.128" value="ac106a80"/>
  </proto>
  <proto name="tcp" showname="Transmission Control Protocol, Src Port: 34671 (34671), Dst Port: 1027 (1027), Seq: 576, Ack: 530, Len: 584" size="32" pos="34">
    <field name="tcp.srcport" showname="Source port: 34671 (34671)" size="2" pos="34" show="34671" value="876f"/>
    <field name="tcp.dstport" showname="Destination port: 1027 (1027)" size="2" pos="36" show="1027" value="0403"/>
    <field name="tcp.port" showname="Source or Destination Port: 34671" hide="yes" size="2" pos="34" show="34671" value="876f"/>
    <field name="tcp.port" showname="Source or Destination Port: 1027" hide="yes" size="2" pos="36" show="1027" value="0403"/>
    <field name="tcp.stream" showname="Stream index: 1" size="0" pos="34" show="1"/>
    <field name="tcp.len" showname="TCP Segment Len: 584" hide="yes" size="1" pos="46" show="584" value="80"/>
    <field name="tcp.seq" showname="Sequence number: 576    (relative sequence number)" size="4" pos="38" show="576" value="78df6d20"/>
    <field name="tcp.nxtseq" showname="Next sequence number: 1160    (relative sequence number)" size="0" pos="34" show="1160"/>
    <field name="tcp.ack" showname="Acknowledgment number: 530    (relative ack number)" size="4" pos="42" show="530" value="620e5fce"/>
    <field name="tcp.hdr_len" showname="Header length: 32 bytes" size="1" pos="46" show="32" value="80"/>
    <field name="tcp.flags" showname="Flags: 0x018 (PSH, ACK)" size="2" pos="46" show="0x0018" value="18" unmaskedvalue="8018">
      <field name="tcp.flags.res" showname="000. .... .... = Reserved: Not set" size="1" pos="46" show="0" value="0" unmaskedvalue="80"/>
      <field name="tcp.flags.ns" showname="...0 .... .... = Nonce: Not set" size="1" pos="46" show="0" value="0" unmaskedvalue="80"/>
      <field name="tcp.flags.cwr" showname=".... 0... .... = Congestion Window Reduced (CWR): Not set" size="1" pos="47" show="0" value="0" unmaskedvalue="18"/>
      <field name="tcp.flags.ecn" showname=".... .0.. .... = ECN-Echo: Not set" size="1" pos="47" show="0" value="0" unmaskedvalue="18"/>
      <field name="tcp.flags.urg" showname=".... ..0. .... = Urgent: Not set" size="1" pos="47" show="0" value="0" unmaskedvalue="18"/>
      <field name="tcp.flags.ack" showname=".... ...1 .... = Acknowledgment: Set" size="1" pos="47" show="1" value="1" unmaskedvalue="18"/>
      <field name="tcp.flags.push" showname=".... .... 1... = Push: Set" size="1" pos="47" show="1" value="1" unmaskedvalue="18"/>
      <field name="tcp.flags.reset" showname=".... .... .0.. = Reset: Not set" size="1" pos="47" show="0" value="0" unmaskedvalue="18"/>
      <field name="tcp.flags.syn" showname=".... .... ..0. = Syn: Not set" size="1" pos="47" show="0" value="0" unmaskedvalue="18"/>
      <field name="tcp.flags.fin" showname=".... .... ...0 = Fin: Not set" size="1" pos="47" show="0" value="0" unmaskedvalue="18"/>
    </field>
    <field name="tcp.window_size_value" showname="Window size value: 123" size="2" pos="48" show="123" value="007b"/>
    <field name="tcp.window_size" showname="Calculated window size: 15744" size="2" pos="48" show="15744" value="007b"/>
    <field name="tcp.window_size_scalefactor" showname="Window size scaling factor: 128" size="2" pos="48" show="128" value="007b"/>
    <field name="tcp.checksum" showname="Checksum: 0xe1db [validation disabled]" size="2" pos="50" show="0xe1db" value="e1db">
      <field name="tcp.checksum_good" showname="Good Checksum: False" size="2" pos="50" show="0" value="e1db"/>
      <field name="tcp.checksum_bad" showname="Bad Checksum: False" size="2" pos="50" show="0" value="e1db"/>
    </field>
    <field name="tcp.options" showname="Options: (12 bytes), No-Operation (NOP), No-Operation (NOP), Timestamps" size="12" pos="54" show="01:01:08:0a:01:9f:98:96:00:54:9e:11" value="0101080a019f989600549e11">
      <field name="" show="No-Operation (NOP)" size="1" pos="54" value="01">
        <field name="tcp.options.type" showname="Type: 1" size="1" pos="54" show="1" value="01">
          <field name="tcp.options.type.copy" showname="0... .... = Copy on fragmentation: No" size="1" pos="54" show="0" value="0" unmaskedvalue="01"/>
          <field name="tcp.options.type.class" showname=".00. .... = Class: Control (0)" size="1" pos="54" show="0" value="0" unmaskedvalue="01"/>
          <field name="tcp.options.type.number" showname="...0 0001 = Number: No-Operation (NOP) (1)" size="1" pos="54" show="1" value="1" unmaskedvalue="01"/>
        </field>
      </field>
      <field name="" show="No-Operation (NOP)" size="1" pos="55" value="01">
        <field name="tcp.options.type" showname="Type: 1" size="1" pos="55" show="1" value="01">
          <field name="tcp.options.type.copy" showname="0... .... = Copy on fragmentation: No" size="1" pos="55" show="0" value="0" unmaskedvalue="01"/>
          <field name="tcp.options.type.class" showname=".00. .... = Class: Control (0)" size="1" pos="55" show="0" value="0" unmaskedvalue="01"/>
          <field name="tcp.options.type.number" showname="...0 0001 = Number: No-Operation (NOP) (1)" size="1" pos="55" show="1" value="1" unmaskedvalue="01"/>
        </field>
      </field>
      <field name="" show="Timestamps: TSval 27236502, TSecr 5545489" size="10" pos="56" value="080a019f989600549e11">
        <field name="tcp.option_kind" showname="Kind: Timestamp (8)" size="1" pos="56" show="8" value="08"/>
        <field name="tcp.option_len" showname="Length: 10" size="1" pos="57" show="10" value="0a"/>
        <field name="tcp.options.timestamp.tsval" showname="Timestamp value: 27236502" size="4" pos="58" show="27236502" value="019f9896"/>
        <field name="tcp.options.timestamp.tsecr" showname="Timestamp echo reply: 5545489" size="4" pos="62" show="5545489" value="00549e11"/>
      </field>
    </field>
    <field name="tcp.analysis" showname="SEQ/ACK analysis" size="0" pos="34" show="" value="">
      <field name="tcp.analysis.bytes_in_flight" showname="Bytes in flight: 584" size="0" pos="34" show="584"/>
    </field>
    <field name="tcp.pdu.size" showname="PDU Size: 584" size="584" pos="66" show="584" value="47494f50010100000000023c0000000100001000000001a97b7469636b3d323b64657074683d303b726f6f743d7b6e616d653d7b636f6d706f6e656e743d2242495053444b223b6d6574686f643d2253657373696f6e4d67723a6c6f676f6e223b7d3b69643d7b686f73743d22776b7331313931223b7069643d31303238353b7469643d313b646174615f69643d323b737465705f69643d313b7d3b7d3b63616c6c65723d7b6e616d653d7b636f6d706f6e656e743d22223b6d6574686f643d22223b7d3b69643d7b686f73743d22223b7069643d303b7469643d303b646174615f69643d303b737465705f69643d303b7d3b7d3b63616c6c65653d7b6e616d653d7b636f6d706f6e656e743d2242495053444b223b6d6574686f643d2253657373696f6e4d67723a6c6f676f6e223b7d3b69643d7b686f73743d22776b7331313931223b7069643d31303238353b7469643d313b646174615f69643d323b737465705f69643d313b7d3b7d3b766172733d5b7b6b65793d22416374696f6e4944223b76616c75653d22436b5270625f684f5055695775374d747257777746627731223b7d5d3b73657474696e67733d5b5d3b70617373706f72743d22223b7d0000000000000001010000000000001000000000adccf151f8590d00020000000000000b6e6577536572766963650000000000000000000a0049006e0066006f00530074006f0072006500000000001c006f007300630061003a00690069006f0070003a002f002f003b005300320053004400530043005600520059003d00740072007500650000"/>
  </proto>
  <proto name="giop" showname="General Inter-ORB Protocol" size="584" pos="66">
    <field name="" show="GIOP Header" size="12" pos="66" value="47494f50010100000000023c">
      <field name="giop.magic" showname="Magic: GIOP" size="4" pos="66" show="GIOP" value="47494f50"/>
      <field name="" show="Version: 1.1" size="2" pos="70" value="0101">
        <field name="giop.major_version" showname="Major Version: 1" size="1" pos="70" show="1" value="01"/>
        <field name="giop.minor_version" showname="Minor Version: 1" size="1" pos="71" show="1" value="01"/>
        <field name="giop.flags" showname="Message Flags: 0x00, (Big Endian)" size="1" pos="72" show="0x00" value="00">
          <field name="giop.flags.ziop_enabled" showname=".... 0... = ZIOP Enabled: False" size="1" pos="72" show="0" value="0" unmaskedvalue="00"/>
          <field name="giop.flags.ziop_supported" showname=".... .0.. = ZIOP Supported: False" size="1" pos="72" show="0" value="0" unmaskedvalue="00"/>
          <field name="giop.flags.fragment" showname=".... ..0. = Fragment: False" size="1" pos="72" show="0" value="0" unmaskedvalue="00"/>
          <field name="giop.flags.little_endian" showname=".... ...0 = Little Endian: False" size="1" pos="72" show="0" value="0" unmaskedvalue="00"/>
        </field>
      </field>
      <field name="giop.type" showname="Message type: Request (0)" size="1" pos="73" show="0" value="00"/>
      <field name="giop.len" showname="Message size: 572" size="4" pos="74" show="572" value="0000023c"/>
    </field>
  </proto>
  <proto name="fake-field-wrapper">
    <field name="" show="General Inter-ORB Protocol Request" size="572" pos="78" value="0000000100001000000001a97b7469636b3d323b64657074683d303b726f6f743d7b6e616d653d7b636f6d706f6e656e743d2242495053444b223b6d6574686f643d2253657373696f6e4d67723a6c6f676f6e223b7d3b69643d7b686f73743d22776b7331313931223b7069643d31303238353b7469643d313b646174615f69643d323b737465705f69643d313b7d3b7d3b63616c6c65723d7b6e616d653d7b636f6d706f6e656e743d22223b6d6574686f643d22223b7d3b69643d7b686f73743d22223b7069643d303b7469643d303b646174615f69643d303b737465705f69643d303b7d3b7d3b63616c6c65653d7b6e616d653d7b636f6d706f6e656e743d2242495053444b223b6d6574686f643d2253657373696f6e4d67723a6c6f676f6e223b7d3b69643d7b686f73743d22776b7331313931223b7069643d31303238353b7469643d313b646174615f69643d323b737465705f69643d313b7d3b7d3b766172733d5b7b6b65793d22416374696f6e4944223b76616c75653d22436b5270625f684f5055695775374d747257777746627731223b7d5d3b73657474696e67733d5b5d3b70617373706f72743d22223b7d0000000000000001010000000000001000000000adccf151f8590d00020000000000000b6e6577536572766963650000000000000000000a0049006e0066006f00530074006f0072006500000000001c006f007300630061003a00690069006f0070003a002f002f003b005300320053004400530043005600520059003d00740072007500650000">
      <field name="" show="ServiceContextList" size="437" pos="78" value="0000000100001000000001a97b7469636b3d323b64657074683d303b726f6f743d7b6e616d653d7b636f6d706f6e656e743d2242495053444b223b6d6574686f643d2253657373696f6e4d67723a6c6f676f6e223b7d3b69643d7b686f73743d22776b7331313931223b7069643d31303238353b7469643d313b646174615f69643d323b737465705f69643d313b7d3b7d3b63616c6c65723d7b6e616d653d7b636f6d706f6e656e743d22223b6d6574686f643d22223b7d3b69643d7b686f73743d22223b7069643d303b7469643d303b646174615f69643d303b737465705f69643d303b7d3b7d3b63616c6c65653d7b6e616d653d7b636f6d706f6e656e743d2242495053444b223b6d6574686f643d2253657373696f6e4d67723a6c6f676f6e223b7d3b69643d7b686f73743d22776b7331313931223b7069643d31303238353b7469643d313b646174615f69643d323b737465705f69643d313b7d3b7d3b766172733d5b7b6b65793d22416374696f6e4944223b76616c75653d22436b5270625f684f5055695775374d747257777746627731223b7d5d3b73657474696e67733d5b5d3b70617373706f72743d22223b7d00">
        <field name="giop.seqlen" showname="Sequence Length: 1" size="4" pos="78" show="1" value="00000001"/>
        <field name="giop.iiop.vscid" showname="0000 0000 0000 0000 0000 0000 .... .... = VSCID: TransactionService (0x00000000)" size="4" pos="82" show="0x00000000" value="0" unmaskedvalue="00001000"/>
        <field name="giop.iiop.scid" showname=".... .... .... .... .... .... 0000 0000 = SCID: 0x00000000" size="4" pos="82" show="0x00000000" value="0" unmaskedvalue="00001000"/>
        <field name="giop.context_data_len" showname="Context Data Length: 425" size="4" pos="86" show="425" value="000001a9"/>
        <field name="giop.context_data" showname="Context Data [truncated]: {tick=2;depth=0;root={name={component=&quot;BIPSDK&quot;;method=&quot;SessionMgr:logon&quot;;};id={host=&quot;wks1191&quot;;pid=10285;tid=1;data_id=2;step_id=1;};};caller={name={component=&quot;&quot;;method=&quot;&quot;;};id={host=&quot;&quot;;pid=0;tid=0;data_id=0;step_i" size="425" pos="90" show="{tick=2;depth=0;root={name={component=\&quot;BIPSDK\&quot;;method=\&quot;SessionMgr:logon\&quot;;};id={host=\&quot;wks1191\&quot;;pid=10285;tid=1;data_id=2;step_id=1;};};caller={name={component=\&quot;\&quot;;method=\&quot;\&quot;;};id={host=\&quot;\&quot;;pid=0;tid=0;data_id=0;step_id=0;};};callee={name={component=\&quot;BIPSDK\&quot;;method=\&quot;SessionMgr:logon\&quot;;};id={host=\&quot;wks1191\&quot;;pid=10285;tid=1;data_id=2;step_id=1;};};vars=[{key=\&quot;ActionID\&quot;;value=\&quot;CkRpb_hOPUiWu7MtrWwwFbw1\&quot;;}];settings=[];passport=\&quot;\&quot;;}." value="7b7469636b3d323b64657074683d303b726f6f743d7b6e616d653d7b636f6d706f6e656e743d2242495053444b223b6d6574686f643d2253657373696f6e4d67723a6c6f676f6e223b7d3b69643d7b686f73743d22776b7331313931223b7069643d31303238353b7469643d313b646174615f69643d323b737465705f69643d313b7d3b7d3b63616c6c65723d7b6e616d653d7b636f6d706f6e656e743d22223b6d6574686f643d22223b7d3b69643d7b686f73743d22223b7069643d303b7469643d303b646174615f69643d303b737465705f69643d303b7d3b7d3b63616c6c65653d7b6e616d653d7b636f6d706f6e656e743d2242495053444b223b6d6574686f643d2253657373696f6e4d67723a6c6f676f6e223b7d3b69643d7b686f73743d22776b7331313931223b7069643d31303238353b7469643d313b646174615f69643d323b737465705f69643d313b7d3b7d3b766172733d5b7b6b65793d22416374696f6e4944223b76616c75653d22436b5270625f684f5055695775374d747257777746627731223b7d5d3b73657474696e67733d5b5d3b70617373706f72743d22223b7d00"/>
      </field>
      <field name="giop.request_id" showname="Request id: 1" size="4" pos="518" show="1" value="00000001"/>
      <field name="giop.rsp_expected" showname="Response expected: 1" size="1" pos="522" show="1" value="01"/>
      <field name="giop.reserved" showname="Reserved: 000000" size="3" pos="523" show="00:00:00" value="000000"/>
      <field name="giop.objektkey_len" showname="Object Key length: 16" size="4" pos="526" show="16" value="00000010"/>
      <field name="giop.objektkey" showname="Object Key: 00000000adccf151f8590d0002000000" size="16" pos="530" show="00:00:00:00:ad:cc:f1:51:f8:59:0d:00:02:00:00:00" value="00000000adccf151f8590d0002000000"/>
      <field name="giop.request_op_len" showname="Operation length: 11" size="4" pos="546" show="11" value="0000000b"/>
      <field name="giop.request_op" showname="Request operation: newService" size="11" pos="550" show="newService" value="6e65775365727669636500"/>
      <field name="giop.request_principal_len" showname="Requesting Principal Length: 0" size="4" pos="562" show="0" value="00000000"/>
      <field name="giop.stub_data" showname="Stub data: 0000000a0049006e0066006f00530074006f007200650000..." size="84" pos="566" show="00:00:00:0a:00:49:00:6e:00:66:00:6f:00:53:00:74:00:6f:00:72:00:65:00:00:00:00:00:1c:00:6f:00:73:00:63:00:61:00:3a:00:69:00:69:00:6f:00:70:00:3a:00:2f:00:2f:00:3b:00:53:00:32:00:53:00:44:00:53:00:43:00:56:00:52:00:59:00:3d:00:74:00:72:00:75:00:65:00:00" value="0000000a0049006e0066006f00530074006f0072006500000000001c006f007300630061003a00690069006f0070003a002f002f003b005300320053004400530043005600520059003d00740072007500650000"/>
  </field>
</proto>
</packet>


</pdml>
